target datalayout = "e-m:e-p270:32:32-p271:32:32-p272:64:64-i64:64-i128:128-f80:128-n8:16:32:64-S128"
target triple = "x86_64-pc-linux-gnu"

@H5_time_t_reg_free_list = global { i8, [3 x i8], i32, i32, [4 x i8], ptr, i64, ptr } { i8 0, [3 x i8] zeroinitializer, i32 0, i32 0, [4 x i8] zeroinitializer, ptr @.str.2, i64 8, ptr null }, align 8
@H5O_init_g = external global i8, align 1
@H5_libterm_g = external global i8, align 1
@.str.3 = private unnamed_addr constant [102 x i8] c"generated/home/dtcxzyw/WorkSpace/Projects/compilers/llvm-opt-benchmark/bench/hdf5/hdf5/src/H5Omtime.c\00", align 1
@__func__.H5O__mtime_new_decode = private unnamed_addr constant [22 x i8] c"H5O__mtime_new_decode\00", align 1
@H5E_OHDR_g = external global i64, align 8
@H5E_OVERFLOW_g = external global i64, align 8
@.str.4 = private unnamed_addr constant [43 x i8] c"ran off end of input buffer while decoding\00", align 1
@H5E_CANTLOAD_g = external global i64, align 8
@.str.5 = private unnamed_addr constant [37 x i8] c"bad version number for mtime message\00", align 1
@H5E_RESOURCE_g = external global i64, align 8
@H5E_NOSPACE_g = external global i64, align 8
@.str.6 = private unnamed_addr constant [25 x i8] c"memory allocation failed\00", align 1

; Function Attrs: nounwind uwtable
define internal ptr @H5O__mtime_new_decode(ptr noundef %0, ptr noundef %1, i32 noundef %2, ptr noundef %3, i64 noundef %4, ptr noundef %5) #0 {
  %7 = alloca ptr, align 8
  %8 = alloca ptr, align 8
  %9 = alloca i32, align 4
  %10 = alloca ptr, align 8
  %11 = alloca i64, align 8
  %12 = alloca ptr, align 8
  %13 = alloca ptr, align 8
  %14 = alloca ptr, align 8
  %15 = alloca i32, align 4
  %16 = alloca ptr, align 8
  %17 = alloca i8, align 1
  store ptr %0, ptr %7, align 8, !tbaa !3
  store ptr %1, ptr %8, align 8, !tbaa !8
  store i32 %2, ptr %9, align 4, !tbaa !10
  store ptr %3, ptr %10, align 8, !tbaa !12
  store i64 %4, ptr %11, align 8, !tbaa !14
  store ptr %5, ptr %12, align 8, !tbaa !16
  call void @llvm.lifetime.start.p0(i64 8, ptr %13) #7
  %18 = load ptr, ptr %12, align 8, !tbaa !16
  %19 = load i64, ptr %11, align 8, !tbaa !14
  %20 = getelementptr inbounds nuw i8, ptr %18, i64 %19
  %21 = getelementptr inbounds i8, ptr %20, i64 -1
  store ptr %21, ptr %13, align 8, !tbaa !16
  call void @llvm.lifetime.start.p0(i64 8, ptr %14) #7
  store ptr null, ptr %14, align 8, !tbaa !18
  call void @llvm.lifetime.start.p0(i64 4, ptr %15) #7
  call void @llvm.lifetime.start.p0(i64 8, ptr %16) #7
  store ptr null, ptr %16, align 8, !tbaa !20
  call void @llvm.lifetime.start.p0(i64 1, ptr %17) #7
  store i8 0, ptr %17, align 1, !tbaa !21
  %22 = load i8, ptr @H5O_init_g, align 1, !tbaa !21, !range !23, !noundef !24
  %23 = trunc i8 %22 to i1
  br i1 %23, label %28, label %24

24:                                               ; preds = %6
  %25 = load i8, ptr @H5_libterm_g, align 1, !tbaa !21, !range !23, !noundef !24
  %26 = trunc i8 %25 to i1
  %27 = xor i1 %26, true
  br label %28

28:                                               ; preds = %24, %6
  %29 = phi i1 [ true, %6 ], [ %27, %24 ]
  %30 = xor i1 %29, true
  %31 = xor i1 %30, true
  %32 = zext i1 %31 to i32
  %33 = sext i32 %32 to i64
  %34 = call i64 @llvm.expect.i64(i64 %33, i64 1)
  %35 = icmp ne i64 %34, 0
  br i1 %35, label %36, label %220

36:                                               ; preds = %28
  %37 = load ptr, ptr %12, align 8, !tbaa !16
  %38 = load ptr, ptr %13, align 8, !tbaa !16
  %39 = icmp ugt ptr %37, %38
  br i1 %39, label %48, label %40

40:                                               ; preds = %36
  %41 = load ptr, ptr %13, align 8, !tbaa !16
  %42 = load ptr, ptr %12, align 8, !tbaa !16
  %43 = ptrtoint ptr %41 to i64
  %44 = ptrtoint ptr %42 to i64
  %45 = sub i64 %43, %44
  %46 = add nsw i64 %45, 1
  %47 = icmp ugt i64 1, %46
  br i1 %47, label %48, label %67

48:                                               ; preds = %40, %36
  br label %49

49:                                               ; preds = %48
  br label %50

50:                                               ; preds = %49
  br label %51

51:                                               ; preds = %50
  %52 = load i64, ptr @H5E_OHDR_g, align 8, !tbaa !14
  %53 = load i64, ptr @H5E_OVERFLOW_g, align 8, !tbaa !14
  %54 = call i32 (ptr, ptr, i32, i64, i64, ptr, ...) @H5E_printf_stack(ptr noundef @.str.3, ptr noundef @__func__.H5O__mtime_new_decode, i32 noundef 125, i64 noundef %52, i64 noundef %53, ptr noundef @.str.4)
  br label %55

55:                                               ; preds = %51
  br label %56

56:                                               ; preds = %55
  store i8 1, ptr %17, align 1, !tbaa !21
  %57 = load i8, ptr %17, align 1, !tbaa !21, !range !23, !noundef !24
  %58 = trunc i8 %57 to i1
  %59 = zext i1 %58 to i8
  store i8 %59, ptr %17, align 1, !tbaa !21
  br label %60

60:                                               ; preds = %56
  br label %61

61:                                               ; preds = %60
  br label %62

62:                                               ; preds = %61
  store ptr null, ptr %16, align 8, !tbaa !20
  br label %219

63:                                               ; No predecessors!
  br label %64

64:                                               ; preds = %63
  br label %65

65:                                               ; preds = %64
  br label %66

66:                                               ; preds = %65
  br label %67

67:                                               ; preds = %66, %40
  %68 = load ptr, ptr %12, align 8, !tbaa !16
  %69 = getelementptr inbounds nuw i8, ptr %68, i32 1
  store ptr %69, ptr %12, align 8, !tbaa !16
  %70 = load i8, ptr %68, align 1, !tbaa !27
  %71 = zext i8 %70 to i32
  %72 = icmp ne i32 %71, 1
  br i1 %72, label %73, label %92

73:                                               ; preds = %67
  br label %74

74:                                               ; preds = %73
  br label %75

75:                                               ; preds = %74
  br label %76

76:                                               ; preds = %75
  %77 = load i64, ptr @H5E_OHDR_g, align 8, !tbaa !14
  %78 = load i64, ptr @H5E_CANTLOAD_g, align 8, !tbaa !14
  %79 = call i32 (ptr, ptr, i32, i64, i64, ptr, ...) @H5E_printf_stack(ptr noundef @.str.3, ptr noundef @__func__.H5O__mtime_new_decode, i32 noundef 127, i64 noundef %77, i64 noundef %78, ptr noundef @.str.5)
  br label %80

80:                                               ; preds = %76
  br label %81

81:                                               ; preds = %80
  store i8 1, ptr %17, align 1, !tbaa !21
  %82 = load i8, ptr %17, align 1, !tbaa !21, !range !23, !noundef !24
  %83 = trunc i8 %82 to i1
  %84 = zext i1 %83 to i8
  store i8 %84, ptr %17, align 1, !tbaa !21
  br label %85

85:                                               ; preds = %81
  br label %86

86:                                               ; preds = %85
  br label %87

87:                                               ; preds = %86
  store ptr null, ptr %16, align 8, !tbaa !20
  br label %219

88:                                               ; No predecessors!
  br label %89

89:                                               ; preds = %88
  br label %90

90:                                               ; preds = %89
  br label %91

91:                                               ; preds = %90
  br label %92

92:                                               ; preds = %91, %67
  %93 = load ptr, ptr %12, align 8, !tbaa !16
  %94 = load ptr, ptr %13, align 8, !tbaa !16
  %95 = icmp ugt ptr %93, %94
  br i1 %95, label %104, label %96

96:                                               ; preds = %92
  %97 = load ptr, ptr %13, align 8, !tbaa !16
  %98 = load ptr, ptr %12, align 8, !tbaa !16
  %99 = ptrtoint ptr %97 to i64
  %100 = ptrtoint ptr %98 to i64
  %101 = sub i64 %99, %100
  %102 = add nsw i64 %101, 1
  %103 = icmp ugt i64 3, %102
  br i1 %103, label %104, label %123

104:                                              ; preds = %96, %92
  br label %105

105:                                              ; preds = %104
  br label %106

106:                                              ; preds = %105
  br label %107

107:                                              ; preds = %106
  %108 = load i64, ptr @H5E_OHDR_g, align 8, !tbaa !14
  %109 = load i64, ptr @H5E_OVERFLOW_g, align 8, !tbaa !14
  %110 = call i32 (ptr, ptr, i32, i64, i64, ptr, ...) @H5E_printf_stack(ptr noundef @.str.3, ptr noundef @__func__.H5O__mtime_new_decode, i32 noundef 131, i64 noundef %108, i64 noundef %109, ptr noundef @.str.4)
  br label %111

111:                                              ; preds = %107
  br label %112

112:                                              ; preds = %111
  store i8 1, ptr %17, align 1, !tbaa !21
  %113 = load i8, ptr %17, align 1, !tbaa !21, !range !23, !noundef !24
  %114 = trunc i8 %113 to i1
  %115 = zext i1 %114 to i8
  store i8 %115, ptr %17, align 1, !tbaa !21
  br label %116

116:                                              ; preds = %112
  br label %117

117:                                              ; preds = %116
  br label %118

118:                                              ; preds = %117
  store ptr null, ptr %16, align 8, !tbaa !20
  br label %219

119:                                              ; No predecessors!
  br label %120

120:                                              ; preds = %119
  br label %121

121:                                              ; preds = %120
  br label %122

122:                                              ; preds = %121
  br label %123

123:                                              ; preds = %122, %96
  %124 = load ptr, ptr %12, align 8, !tbaa !16
  %125 = getelementptr inbounds i8, ptr %124, i64 3
  store ptr %125, ptr %12, align 8, !tbaa !16
  %126 = load ptr, ptr %12, align 8, !tbaa !16
  %127 = load ptr, ptr %13, align 8, !tbaa !16
  %128 = icmp ugt ptr %126, %127
  br i1 %128, label %137, label %129

129:                                              ; preds = %123
  %130 = load ptr, ptr %13, align 8, !tbaa !16
  %131 = load ptr, ptr %12, align 8, !tbaa !16
  %132 = ptrtoint ptr %130 to i64
  %133 = ptrtoint ptr %131 to i64
  %134 = sub i64 %132, %133
  %135 = add nsw i64 %134, 1
  %136 = icmp ugt i64 4, %135
  br i1 %136, label %137, label %156

137:                                              ; preds = %129, %123
  br label %138

138:                                              ; preds = %137
  br label %139

139:                                              ; preds = %138
  br label %140

140:                                              ; preds = %139
  %141 = load i64, ptr @H5E_OHDR_g, align 8, !tbaa !14
  %142 = load i64, ptr @H5E_OVERFLOW_g, align 8, !tbaa !14
  %143 = call i32 (ptr, ptr, i32, i64, i64, ptr, ...) @H5E_printf_stack(ptr noundef @.str.3, ptr noundef @__func__.H5O__mtime_new_decode, i32 noundef 136, i64 noundef %141, i64 noundef %142, ptr noundef @.str.4)
  br label %144

144:                                              ; preds = %140
  br label %145

145:                                              ; preds = %144
  store i8 1, ptr %17, align 1, !tbaa !21
  %146 = load i8, ptr %17, align 1, !tbaa !21, !range !23, !noundef !24
  %147 = trunc i8 %146 to i1
  %148 = zext i1 %147 to i8
  store i8 %148, ptr %17, align 1, !tbaa !21
  br label %149

149:                                              ; preds = %145
  br label %150

150:                                              ; preds = %149
  br label %151

151:                                              ; preds = %150
  store ptr null, ptr %16, align 8, !tbaa !20
  br label %219

152:                                              ; No predecessors!
  br label %153

153:                                              ; preds = %152
  br label %154

154:                                              ; preds = %153
  br label %155

155:                                              ; preds = %154
  br label %156

156:                                              ; preds = %155, %129
  br label %157

157:                                              ; preds = %156
  %158 = load ptr, ptr %12, align 8, !tbaa !16
  %159 = load i8, ptr %158, align 1, !tbaa !27
  %160 = zext i8 %159 to i32
  %161 = and i32 %160, 255
  store i32 %161, ptr %15, align 4, !tbaa !10
  %162 = load ptr, ptr %12, align 8, !tbaa !16
  %163 = getelementptr inbounds nuw i8, ptr %162, i32 1
  store ptr %163, ptr %12, align 8, !tbaa !16
  %164 = load ptr, ptr %12, align 8, !tbaa !16
  %165 = load i8, ptr %164, align 1, !tbaa !27
  %166 = zext i8 %165 to i32
  %167 = and i32 %166, 255
  %168 = shl i32 %167, 8
  %169 = load i32, ptr %15, align 4, !tbaa !10
  %170 = or i32 %169, %168
  store i32 %170, ptr %15, align 4, !tbaa !10
  %171 = load ptr, ptr %12, align 8, !tbaa !16
  %172 = getelementptr inbounds nuw i8, ptr %171, i32 1
  store ptr %172, ptr %12, align 8, !tbaa !16
  %173 = load ptr, ptr %12, align 8, !tbaa !16
  %174 = load i8, ptr %173, align 1, !tbaa !27
  %175 = zext i8 %174 to i32
  %176 = and i32 %175, 255
  %177 = shl i32 %176, 16
  %178 = load i32, ptr %15, align 4, !tbaa !10
  %179 = or i32 %178, %177
  store i32 %179, ptr %15, align 4, !tbaa !10
  %180 = load ptr, ptr %12, align 8, !tbaa !16
  %181 = getelementptr inbounds nuw i8, ptr %180, i32 1
  store ptr %181, ptr %12, align 8, !tbaa !16
  %182 = load ptr, ptr %12, align 8, !tbaa !16
  %183 = load i8, ptr %182, align 1, !tbaa !27
  %184 = zext i8 %183 to i32
  %185 = and i32 %184, 255
  %186 = shl i32 %185, 24
  %187 = load i32, ptr %15, align 4, !tbaa !10
  %188 = or i32 %187, %186
  store i32 %188, ptr %15, align 4, !tbaa !10
  %189 = load ptr, ptr %12, align 8, !tbaa !16
  %190 = getelementptr inbounds nuw i8, ptr %189, i32 1
  store ptr %190, ptr %12, align 8, !tbaa !16
  br label %191

191:                                              ; preds = %157
  br label %192

192:                                              ; preds = %191
  %193 = call noalias ptr @H5FL_reg_malloc(ptr noundef @H5_time_t_reg_free_list)
  store ptr %193, ptr %14, align 8, !tbaa !18
  %194 = icmp eq ptr null, %193
  br i1 %194, label %195, label %214

195:                                              ; preds = %192
  br label %196

196:                                              ; preds = %195
  br label %197

197:                                              ; preds = %196
  br label %198

198:                                              ; preds = %197
  %199 = load i64, ptr @H5E_RESOURCE_g, align 8, !tbaa !14
  %200 = load i64, ptr @H5E_NOSPACE_g, align 8, !tbaa !14
  %201 = call i32 (ptr, ptr, i32, i64, i64, ptr, ...) @H5E_printf_stack(ptr noundef @.str.3, ptr noundef @__func__.H5O__mtime_new_decode, i32 noundef 141, i64 noundef %199, i64 noundef %200, ptr noundef @.str.6)
  br label %202

202:                                              ; preds = %198
  br label %203

203:                                              ; preds = %202
  store i8 1, ptr %17, align 1, !tbaa !21
  %204 = load i8, ptr %17, align 1, !tbaa !21, !range !23, !noundef !24
  %205 = trunc i8 %204 to i1
  %206 = zext i1 %205 to i8
  store i8 %206, ptr %17, align 1, !tbaa !21
  br label %207

207:                                              ; preds = %203
  br label %208

208:                                              ; preds = %207
  br label %209

209:                                              ; preds = %208
  store ptr null, ptr %16, align 8, !tbaa !20
  br label %219

210:                                              ; No predecessors!
  br label %211

211:                                              ; preds = %210
  br label %212

212:                                              ; preds = %211
  br label %213

213:                                              ; preds = %212
  br label %214

214:                                              ; preds = %213, %192
  %215 = load i32, ptr %15, align 4, !tbaa !10
  %216 = zext i32 %215 to i64
  %217 = load ptr, ptr %14, align 8, !tbaa !18
  store i64 %216, ptr %217, align 8, !tbaa !14
  %218 = load ptr, ptr %14, align 8, !tbaa !18
  store ptr %218, ptr %16, align 8, !tbaa !20
  br label %219

219:                                              ; preds = %214, %209, %151, %118, %87, %62
  br label %220

220:                                              ; preds = %219, %28
  %221 = load ptr, ptr %16, align 8, !tbaa !20
  call void @llvm.lifetime.end.p0(i64 1, ptr %17) #7
  call void @llvm.lifetime.end.p0(i64 8, ptr %16) #7
  call void @llvm.lifetime.end.p0(i64 4, ptr %15) #7
  call void @llvm.lifetime.end.p0(i64 8, ptr %14) #7
  call void @llvm.lifetime.end.p0(i64 8, ptr %13) #7
  ret ptr %221
}