; Function Attrs: nounwind uwtable
define internal noalias ptr @H5O__mtime_new_decode(ptr readnone captures(none) %0, ptr readnone captures(none) %1, i32 %2, ptr readnone captures(none) %3, i64 noundef %4, ptr noundef %5) #0 {
  %7 = getelementptr i8, ptr %5, i64 %4
  %.ptr40 = getelementptr i8, ptr %7, i64 -1
  %8 = load i8, ptr @H5O_init_g, align 1, !tbaa !3, !range !7, !noundef !8
  %9 = trunc nuw i8 %8 to i1
  %10 = load i8, ptr @H5_libterm_g, align 1, !range !7
  %11 = trunc nuw i8 %10 to i1
  %12 = xor i1 %11, true
  %13 = select i1 %9, i1 true, i1 %12
  br i1 %13, label %14, label %63, !prof !9

14:                                               ; preds = %6
  %15 = icmp ugt ptr %5, %.ptr40
  br i1 %15, label %21, label %16

16:                                               ; preds = %14
  %17 = ptrtoint ptr %.ptr40 to i64
  %18 = ptrtoint ptr %5 to i64
  %19 = sub i64 %17, %18
  %20 = icmp eq i64 %19, -1
  br i1 %20, label %21, label %25

21:                                               ; preds = %14, %16
  %22 = load i64, ptr @H5E_OHDR_g, align 8, !tbaa !13
  %23 = load i64, ptr @H5E_OVERFLOW_g, align 8, !tbaa !13
  %24 = tail call i32 (ptr, ptr, i32, i64, i64, ptr, ...) @H5E_printf_stack(ptr noundef nonnull @.str.3, ptr noundef nonnull @__func__.H5O__mtime_new_decode, i32 noundef 125, i64 noundef %22, i64 noundef %23, ptr noundef nonnull @.str.4) #9
  br label %63

25:                                               ; preds = %16
  %26 = getelementptr inbounds nuw i8, ptr %5, i64 1
  %27 = load i8, ptr %5, align 1, !tbaa !17
  %.not = icmp eq i8 %27, 1
  br i1 %.not, label %32, label %28

28:                                               ; preds = %25
  %29 = load i64, ptr @H5E_OHDR_g, align 8, !tbaa !13
  %30 = load i64, ptr @H5E_CANTLOAD_g, align 8, !tbaa !13
  %31 = tail call i32 (ptr, ptr, i32, i64, i64, ptr, ...) @H5E_printf_stack(ptr noundef nonnull @.str.3, ptr noundef nonnull @__func__.H5O__mtime_new_decode, i32 noundef 127, i64 noundef %29, i64 noundef %30, ptr noundef nonnull @.str.5) #9
  br label %63

32:                                               ; preds = %25
  %33 = icmp slt i64 %4, 2
  br i1 %33, label %38, label %34

34:                                               ; preds = %32
  %35 = ptrtoint ptr %26 to i64
  %reass.sub = sub i64 %17, %35
  %36 = add i64 %reass.sub, 1
  %37 = icmp ult i64 %36, 3
  br i1 %37, label %38, label %42

38:                                               ; preds = %32, %34
  %39 = load i64, ptr @H5E_OHDR_g, align 8, !tbaa !13
  %40 = load i64, ptr @H5E_OVERFLOW_g, align 8, !tbaa !13
  %41 = tail call i32 (ptr, ptr, i32, i64, i64, ptr, ...) @H5E_printf_stack(ptr noundef nonnull @.str.3, ptr noundef nonnull @__func__.H5O__mtime_new_decode, i32 noundef 131, i64 noundef %39, i64 noundef %40, ptr noundef nonnull @.str.4) #9
  br label %63

42:                                               ; preds = %34
  %43 = getelementptr inbounds nuw i8, ptr %5, i64 4
  %44 = icmp ugt ptr %43, %.ptr40
  br i1 %44, label %49, label %45

45:                                               ; preds = %42
  %46 = ptrtoint ptr %43 to i64
  %reass.sub42 = sub i64 %17, %46
  %47 = add i64 %reass.sub42, 1
  %48 = icmp ult i64 %47, 4
  br i1 %48, label %49, label %53

49:                                               ; preds = %42, %45
  %50 = load i64, ptr @H5E_OHDR_g, align 8, !tbaa !13
  %51 = load i64, ptr @H5E_OVERFLOW_g, align 8, !tbaa !13
  %52 = tail call i32 (ptr, ptr, i32, i64, i64, ptr, ...) @H5E_printf_stack(ptr noundef nonnull @.str.3, ptr noundef nonnull @__func__.H5O__mtime_new_decode, i32 noundef 136, i64 noundef %50, i64 noundef %51, ptr noundef nonnull @.str.4) #9
  br label %63

53:                                               ; preds = %45
  %54 = load i32, ptr %43, align 1
  %55 = tail call noalias ptr @H5FL_reg_malloc(ptr noundef nonnull @H5_time_t_reg_free_list) #9
  %56 = icmp eq ptr %55, null
  br i1 %56, label %57, label %61

57:                                               ; preds = %53
  %58 = load i64, ptr @H5E_RESOURCE_g, align 8, !tbaa !13
  %59 = load i64, ptr @H5E_NOSPACE_g, align 8, !tbaa !13
  %60 = tail call i32 (ptr, ptr, i32, i64, i64, ptr, ...) @H5E_printf_stack(ptr noundef nonnull @.str.3, ptr noundef nonnull @__func__.H5O__mtime_new_decode, i32 noundef 141, i64 noundef %58, i64 noundef %59, ptr noundef nonnull @.str.6) #9
  br label %63

61:                                               ; preds = %53
  %62 = zext i32 %54 to i64
  store i64 %62, ptr %55, align 8, !tbaa !13
  br label %63

63:                                               ; preds = %21, %28, %38, %49, %57, %61, %6
  %.0 = phi ptr [ null, %21 ], [ null, %28 ], [ null, %38 ], [ null, %49 ], [ null, %57 ], [ %55, %61 ], [ null, %6 ]
  ret ptr %.0
}